target datalayout = "e-m:e-p270:32:32-p271:32:32-p272:64:64-i64:64-i128:128-f80:128-n8:16:32:64-S128"
target triple = "x86_64-pc-linux-gnu"

%struct.ma_allocation_callbacks = type { ptr, ptr, ptr, ptr }
%struct.ma_data_source_base = type { ptr, i64, i64, i64, i64, ptr, ptr, ptr, i32 }
%struct.ma_audio_buffer_ref = type { %struct.ma_data_source_base, i32, i32, i32, i64, i64, ptr }
%struct.ma_audio_buffer = type { %struct.ma_audio_buffer_ref, %struct.ma_allocation_callbacks, i32, [1 x i8] }

; Function Attrs: nounwind uwtable
define i32 @ma_audio_buffer_ref_seek_to_pcm_frame(ptr noundef %0, i64 noundef %1) #0 {
  %3 = alloca i32, align 4
  %4 = alloca ptr, align 8
  %5 = alloca i64, align 8
  store ptr %0, ptr %4, align 8, !tbaa !25
  store i64 %1, ptr %5, align 8, !tbaa !47
  %6 = load ptr, ptr %4, align 8, !tbaa !25
  %7 = icmp eq ptr %6, null
  br i1 %7, label %8, label %9

8:                                                ; preds = %2
  store i32 -2, ptr %3, align 4
  br label %20

9:                                                ; preds = %2
  %10 = load i64, ptr %5, align 8, !tbaa !47
  %11 = load ptr, ptr %4, align 8, !tbaa !25
  %12 = getelementptr inbounds nuw %struct.ma_audio_buffer_ref, ptr %11, i32 0, i32 5
  %13 = load i64, ptr %12, align 8, !tbaa !877
  %14 = icmp ugt i64 %10, %13
  br i1 %14, label %15, label %16

15:                                               ; preds = %9
  store i32 -2, ptr %3, align 4
  br label %20

16:                                               ; preds = %9
  %17 = load i64, ptr %5, align 8, !tbaa !47
  %18 = load ptr, ptr %4, align 8, !tbaa !25
  %19 = getelementptr inbounds nuw %struct.ma_audio_buffer_ref, ptr %18, i32 0, i32 4
  store i64 %17, ptr %19, align 8, !tbaa !876
  store i32 0, ptr %3, align 4
  br label %20

20:                                               ; preds = %16, %15, %8
  %21 = load i32, ptr %3, align 4
  ret i32 %21
}

; Function Attrs: nounwind uwtable
define i32 @ma_audio_buffer_seek_to_pcm_frame(ptr noundef %0, i64 noundef %1) #0 {
  %3 = alloca i32, align 4
  %4 = alloca ptr, align 8
  %5 = alloca i64, align 8
  store ptr %0, ptr %4, align 8, !tbaa !25
  store i64 %1, ptr %5, align 8, !tbaa !47
  %6 = load ptr, ptr %4, align 8, !tbaa !25
  %7 = icmp eq ptr %6, null
  br i1 %7, label %8, label %9

8:                                                ; preds = %2
  store i32 -2, ptr %3, align 4
  br label %14

9:                                                ; preds = %2
  %10 = load ptr, ptr %4, align 8, !tbaa !25
  %11 = getelementptr inbounds nuw %struct.ma_audio_buffer, ptr %10, i32 0, i32 0
  %12 = load i64, ptr %5, align 8, !tbaa !47
  %13 = call i32 @ma_audio_buffer_ref_seek_to_pcm_frame(ptr noundef %11, i64 noundef %12)
  store i32 %13, ptr %3, align 4
  br label %14

14:                                               ; preds = %9, %8
  %15 = load i32, ptr %3, align 4
  ret i32 %15
}