; Function Attrs: mustprogress nofree norecurse nosync nounwind willreturn memory(argmem: readwrite) uwtable
define range(i32 -2, 1) i32 @ma_audio_buffer_seek_to_pcm_frame(ptr noundef captures(address_is_null) %0, i64 noundef %1) local_unnamed_addr #13 {
  %3 = icmp eq ptr %0, null
  br i1 %3, label %ma_audio_buffer_ref_seek_to_pcm_frame.exit, label %4

4:                                                ; preds = %2
  %5 = getelementptr inbounds nuw i8, ptr %0, i64 96
  %6 = load i64, ptr %5, align 8, !tbaa !1066
  %7 = icmp ugt i64 %1, %6
  br i1 %7, label %ma_audio_buffer_ref_seek_to_pcm_frame.exit, label %8

8:                                                ; preds = %4
  %9 = getelementptr inbounds nuw i8, ptr %0, i64 88
  store i64 %1, ptr %9, align 8, !tbaa !1065
  br label %ma_audio_buffer_ref_seek_to_pcm_frame.exit

ma_audio_buffer_ref_seek_to_pcm_frame.exit:       ; preds = %8, %4, %2
  %.0 = phi i32 [ -2, %2 ], [ 0, %8 ], [ -2, %4 ]
  ret i32 %.0
}